; ModuleID = '40/3177.c'
source_filename = "40/3177.c"
target datalayout = "e-m:e-p270:32:32-p271:32:32-p272:64:64-i64:64-f80:128-n8:16:32:64-S128"
target triple = "x86_64-pc-linux-gnu"

@.str = private unnamed_addr constant [16 x i8] c"%lf%lf%lf%lf%lf\00", align 1
@.str.1 = private unnamed_addr constant [15 x i8] c"Invalid input\0A\00", align 1
@.str.2 = private unnamed_addr constant [6 x i8] c"%.4f\0A\00", align 1

; Function Attrs: noinline nounwind uwtable
define dso_local i32 @main() #0 {
  %1 = alloca i32, align 4
  %2 = alloca double, align 8
  %3 = alloca double, align 8
  %4 = alloca double, align 8
  %5 = alloca double, align 8
  %6 = alloca double, align 8
  %7 = alloca double, align 8
  %8 = alloca double, align 8
  %9 = alloca double, align 8
  %10 = alloca double, align 8
  store i32 0, i32* %1, align 4
  %11 = call i32 (i8*, ...) @__isoc99_scanf(i8* getelementptr inbounds ([16 x i8], [16 x i8]* @.str, i64 0, i64 0), double* %2, double* %3, double* %4, double* %5, double* %8)
  %12 = load double, double* %2, align 8
  %13 = load double, double* %3, align 8
  %14 = fadd double %12, %13
  %15 = load double, double* %4, align 8
  %16 = fadd double %14, %15
  %17 = load double, double* %5, align 8
  %18 = fadd double %16, %17
  %19 = fdiv double %18, 2.000000e+00
  store double %19, double* %7, align 8
  %20 = load double, double* %8, align 8
  %21 = fmul double %20, 1.000000e+02
  %22 = fdiv double %21, 1.800000e+02
  store double %22, double* %10, align 8
  %23 = load double, double* %7, align 8
  %24 = load double, double* %2, align 8
  %25 = fsub double %23, %24
  %26 = load double, double* %7, align 8
  %27 = load double, double* %3, align 8
  %28 = fsub double %26, %27
  %29 = fmul double %25, %28
  %30 = load double, double* %7, align 8
  %31 = load double, double* %4, align 8
  %32 = fsub double %30, %31
  %33 = fmul double %29, %32
  %34 = load double, double* %7, align 8
  %35 = load double, double* %5, align 8
  %36 = fsub double %34, %35
  %37 = fmul double %33, %36
  %38 = load double, double* %2, align 8
  %39 = load double, double* %3, align 8
  %40 = fmul double %38, %39
  %41 = load double, double* %4, align 8
  %42 = fmul double %40, %41
  %43 = load double, double* %5, align 8
  %44 = fmul double %42, %43
  %45 = load double, double* %10, align 8
  %46 = fdiv double %45, 2.000000e+00
  %47 = call double @cos(double %46) #3
  %48 = fmul double %44, %47
  %49 = load double, double* %10, align 8
  %50 = fdiv double %49, 2.000000e+00
  %51 = call double @cos(double %50) #3
  %52 = fmul double %48, %51
  %53 = fsub double %37, %52
  store double %53, double* %9, align 8
  %54 = load double, double* %9, align 8
  %55 = fcmp olt double %54, 0.000000e+00
  br i1 %55, label %56, label %58

56:                                               ; preds = %0
  %57 = call i32 (i8*, ...) @printf(i8* getelementptr inbounds ([15 x i8], [15 x i8]* @.str.1, i64 0, i64 0))
  br label %63

58:                                               ; preds = %0
  %59 = load double, double* %9, align 8
  %60 = call double @sqrt(double %59) #3
  store double %60, double* %6, align 8
  %61 = load double, double* %6, align 8
  %62 = call i32 (i8*, ...) @printf(i8* getelementptr inbounds ([6 x i8], [6 x i8]* @.str.2, i64 0, i64 0), double %61)
  br label %63

63:                                               ; preds = %58, %56
  %64 = load i32, i32* %1, align 4
  ret i32 %64
}

declare dso_local i32 @__isoc99_scanf(i8*, ...) #1

; Function Attrs: nounwind
declare dso_local double @cos(double) #2

declare dso_local i32 @printf(i8*, ...) #1

; Function Attrs: nounwind
declare dso_local double @sqrt(double) #2


!llvm.module.flags = !{!0}
!llvm.ident = !{!1}

!0 = !{i32 1, !"wchar_size", i32 4}
!1 = !{!"clang version 10.0.0-4ubuntu1 "}
